; Function Attrs: nounwind uwtable
define void @lv_obj_allocate_spec_attr(ptr noundef captures(address_is_null) %0) local_unnamed_addr #0 {
  %.not = icmp eq ptr %0, null
  br i1 %.not, label %.preheader, label %2

.preheader:                                       ; preds = %1, %.preheader
  br label %.preheader

2:                                                ; preds = %1
  %3 = getelementptr inbounds nuw i8, ptr %0, i64 16
  %4 = load ptr, ptr %3, align 8, !tbaa !20
  %5 = icmp eq ptr %4, null
  br i1 %5, label %6, label %16

6:                                                ; preds = %2
  %7 = tail call ptr @lv_malloc_zeroed(i64 noundef 72) #8
  store ptr %7, ptr %3, align 8, !tbaa !20
  %.not8 = icmp eq ptr %7, null
  br i1 %.not8, label %.preheader9, label %8

.preheader9:                                      ; preds = %6, %.preheader9
  br label %.preheader9

8:                                                ; preds = %6
  %9 = getelementptr inbounds nuw i8, ptr %7, i64 66
  %10 = load i16, ptr %9, align 2
  %11 = or i16 %10, 960
  store i16 %11, ptr %9, align 2
  %12 = load ptr, ptr %3, align 8, !tbaa !20
  %13 = getelementptr inbounds nuw i8, ptr %12, i64 66
  %14 = load i16, ptr %13, align 2
  %15 = or i16 %14, 3
  store i16 %15, ptr %13, align 2
  br label %16

16:                                               ; preds = %8, %2
  ret void
}